target datalayout = "e-m:e-p270:32:32-p271:32:32-p272:64:64-i64:64-i128:128-f80:128-n8:16:32:64-S128"
target triple = "x86_64-pc-linux-gnu"

%struct.Curl_easy = type { i32, i64, i64, ptr, %struct.Curl_llist_node, %struct.Curl_llist_node, i32, i32, %struct.Curl_message, %struct.easy_pollset, %struct.Names, ptr, ptr, ptr, %struct.SingleRequest, %struct.UserDefined, ptr, ptr, %struct.Progress, %struct.UrlState, ptr, %struct.PureInfo, %struct.curl_tlssessioninfo }
%struct.Curl_llist_node = type { ptr, ptr, ptr, ptr }
%struct.Curl_message = type { %struct.Curl_llist_node, %struct.CURLMsg }
%struct.CURLMsg = type { i32, ptr, %union.anon }
%union.anon = type { ptr }
%struct.easy_pollset = type { [5 x i32], i32, [5 x i8] }
%struct.Names = type { ptr, i32 }
%struct.SingleRequest = type <{ i64, i64, i64, i64, %struct.curltime, i32, i32, i32, i32, i64, i32, i32, i32, i32, ptr, ptr, %struct.bufq, i64, i64, ptr, ptr, %union.anon.0, ptr, i8, i32, [3 x i8] }>
%struct.curltime = type { i64, i32 }
%struct.bufq = type { ptr, ptr, ptr, ptr, i64, i64, i64, i32 }
%union.anon.0 = type { ptr }
%struct.UserDefined = type <{ ptr, ptr, ptr, ptr, ptr, ptr, i16, [6 x i8], i64, i64, i64, ptr, ptr, i64, i16, i16, [4 x i8], ptr, ptr, ptr, ptr, ptr, ptr, ptr, ptr, ptr, ptr, ptr, ptr, ptr, ptr, ptr, ptr, ptr, ptr, ptr, ptr, ptr, ptr, ptr, i32, i32, i32, i32, i32, [4 x i8], i64, i64, i64, i64, i64, i64, i64, i64, ptr, ptr, %struct.curl_mimepart, ptr, ptr, i64, i8, i8, i8, [5 x i8], %struct.ssl_config_data, %struct.ssl_config_data, ptr, i16, i8, i8, [4 x i8], %struct.ssl_general_config, i32, i32, i32, [4 x i8], ptr, ptr, i8, [7 x i8], i64, i8, i8, i8, i8, i32, ptr, ptr, ptr, i8, i8, [2 x i8], i32, [63 x ptr], [8 x ptr], i32, i32, i32, [4 x i8], ptr, ptr, ptr, ptr, ptr, i8, [3 x i8], i32, i32, i32, i64, %struct.Curl_data_priority, ptr, ptr, i64, ptr, i64, ptr, ptr, ptr, i8, [3 x i8], i32, i8, i8, i64, [6 x i8] }>
%struct.curl_mimepart = type { ptr, ptr, i32, i32, ptr, ptr, ptr, ptr, ptr, ptr, ptr, ptr, ptr, ptr, ptr, i64, %struct.mime_state, ptr, %struct.mime_encoder_state, i64 }
%struct.mime_state = type { i32, ptr, i64 }
%struct.mime_encoder_state = type { i64, i64, i64, [256 x i8] }
%struct.ssl_config_data = type { %struct.ssl_primary_config, i64, ptr, ptr, ptr, ptr, ptr, ptr, ptr, i16 }
%struct.ssl_primary_config = type { ptr, ptr, ptr, ptr, ptr, ptr, ptr, ptr, ptr, ptr, ptr, ptr, i8, i32, i8, i8 }
%struct.ssl_general_config = type { i64, i32 }
%struct.Curl_data_priority = type { ptr, ptr, i32, i8 }
%struct.Progress = type { i64, %struct.pgrs_dir, %struct.pgrs_dir, i64, i64, i32, i32, i64, i64, i64, i64, i64, i64, i64, i64, i64, %struct.curltime, %struct.curltime, %struct.curltime, %struct.curltime, [6 x i64], [6 x %struct.curltime], i32, i8 }
%struct.pgrs_dir = type { i64, i64, i64, %struct.pgrs_measure }
%struct.pgrs_measure = type { %struct.curltime, i64 }
%struct.UrlState = type { %struct.curltime, i64, i64, %struct.dynbuf, ptr, i64, ptr, i32, i32, i32, ptr, i64, i32, i64, i32, ptr, %struct.digestdata, %struct.digestdata, %struct.auth, %struct.auth, %struct.Curl_async, ptr, %struct.curltime, %struct.Curl_tree, %struct.Curl_llist, [15 x %struct.time_node], ptr, ptr, i64, i64, %struct.Curl_data_priority, ptr, ptr, ptr, %struct.urlpieces, ptr, ptr, ptr, ptr, ptr, i64, %struct.dynbuf, %struct.Curl_llist, [2 x %struct.curl_header], ptr, i32, ptr, ptr, %struct.store_netrc, %struct.dynamically_allocated_data, i8, i8, i8, i8, i32 }
%struct.digestdata = type { ptr, ptr, ptr, ptr, ptr, ptr, i32, i8, i8 }
%struct.auth = type { i64, i64, i64, i8 }
%struct.Curl_async = type { ptr, ptr, ptr, ptr, i32, i32, i8 }
%struct.Curl_tree = type { ptr, ptr, ptr, ptr, %struct.curltime, ptr }
%struct.time_node = type { %struct.Curl_llist_node, %struct.curltime, i32 }
%struct.urlpieces = type { ptr, ptr, ptr, ptr, ptr, ptr, ptr, ptr }
%struct.dynbuf = type { ptr, i64, i64, i64 }
%struct.Curl_llist = type { ptr, ptr, ptr, i64 }
%struct.curl_header = type { ptr, ptr, i64, i64, i32, ptr }
%struct.store_netrc = type { %struct.dynbuf, ptr, i8 }
%struct.dynamically_allocated_data = type { ptr, ptr, ptr, ptr, ptr, ptr, ptr, ptr, ptr, ptr, ptr, ptr, ptr }
%struct.PureInfo = type { i32, i32, i32, i64, i64, i64, i64, i64, ptr, ptr, i64, i32, %struct.ip_quadruple, i32, ptr, i32, %struct.curl_certinfo, i32, i8 }
%struct.ip_quadruple = type { [46 x i8], [46 x i8], i32, i32 }
%struct.curl_certinfo = type { i32, ptr }
%struct.curl_tlssessioninfo = type { i32, ptr }

@Curl_cfree = external global ptr, align 8

; Function Attrs: nounwind uwtable
define dso_local i32 @Curl_initinfo(ptr noundef %0) #0 {
  %2 = alloca ptr, align 8
  %3 = alloca ptr, align 8
  %4 = alloca ptr, align 8
  store ptr %0, ptr %2, align 8, !tbaa !4
  call void @llvm.lifetime.start.p0(i64 8, ptr %3) #5
  %5 = load ptr, ptr %2, align 8, !tbaa !4
  %6 = getelementptr inbounds nuw %struct.Curl_easy, ptr %5, i32 0, i32 18
  store ptr %6, ptr %3, align 8, !tbaa !9
  call void @llvm.lifetime.start.p0(i64 8, ptr %4) #5
  %7 = load ptr, ptr %2, align 8, !tbaa !4
  %8 = getelementptr inbounds nuw %struct.Curl_easy, ptr %7, i32 0, i32 21
  store ptr %8, ptr %4, align 8, !tbaa !11
  %9 = load ptr, ptr %3, align 8, !tbaa !9
  %10 = getelementptr inbounds nuw %struct.Progress, ptr %9, i32 0, i32 9
  store i64 0, ptr %10, align 8, !tbaa !13
  %11 = load ptr, ptr %3, align 8, !tbaa !9
  %12 = getelementptr inbounds nuw %struct.Progress, ptr %11, i32 0, i32 10
  store i64 0, ptr %12, align 8, !tbaa !20
  %13 = load ptr, ptr %3, align 8, !tbaa !9
  %14 = getelementptr inbounds nuw %struct.Progress, ptr %13, i32 0, i32 11
  store i64 0, ptr %14, align 8, !tbaa !21
  %15 = load ptr, ptr %3, align 8, !tbaa !9
  %16 = getelementptr inbounds nuw %struct.Progress, ptr %15, i32 0, i32 12
  store i64 0, ptr %16, align 8, !tbaa !22
  %17 = load ptr, ptr %3, align 8, !tbaa !9
  %18 = getelementptr inbounds nuw %struct.Progress, ptr %17, i32 0, i32 13
  store i64 0, ptr %18, align 8, !tbaa !23
  %19 = load ptr, ptr %3, align 8, !tbaa !9
  %20 = getelementptr inbounds nuw %struct.Progress, ptr %19, i32 0, i32 14
  store i64 0, ptr %20, align 8, !tbaa !24
  %21 = load ptr, ptr %3, align 8, !tbaa !9
  %22 = getelementptr inbounds nuw %struct.Progress, ptr %21, i32 0, i32 7
  store i64 0, ptr %22, align 8, !tbaa !25
  %23 = load ptr, ptr %3, align 8, !tbaa !9
  %24 = getelementptr inbounds nuw %struct.Progress, ptr %23, i32 0, i32 15
  store i64 0, ptr %24, align 8, !tbaa !26
  %25 = load ptr, ptr %3, align 8, !tbaa !9
  %26 = getelementptr inbounds nuw %struct.Progress, ptr %25, i32 0, i32 23
  %27 = load i8, ptr %26, align 4
  %28 = and i8 %27, -3
  %29 = or i8 %28, 0
  store i8 %29, ptr %26, align 4
  %30 = load ptr, ptr %4, align 8, !tbaa !11
  %31 = getelementptr inbounds nuw %struct.PureInfo, ptr %30, i32 0, i32 0
  store i32 0, ptr %31, align 8, !tbaa !27
  %32 = load ptr, ptr %4, align 8, !tbaa !11
  %33 = getelementptr inbounds nuw %struct.PureInfo, ptr %32, i32 0, i32 1
  store i32 0, ptr %33, align 4, !tbaa !33
  %34 = load ptr, ptr %4, align 8, !tbaa !11
  %35 = getelementptr inbounds nuw %struct.PureInfo, ptr %34, i32 0, i32 2
  store i32 0, ptr %35, align 8, !tbaa !34
  %36 = load ptr, ptr %4, align 8, !tbaa !11
  %37 = getelementptr inbounds nuw %struct.PureInfo, ptr %36, i32 0, i32 3
  store i64 -1, ptr %37, align 8, !tbaa !35
  %38 = load ptr, ptr %4, align 8, !tbaa !11
  %39 = getelementptr inbounds nuw %struct.PureInfo, ptr %38, i32 0, i32 18
  %40 = load i8, ptr %39, align 4
  %41 = and i8 %40, -2
  %42 = or i8 %41, 0
  store i8 %42, ptr %39, align 4
  %43 = load ptr, ptr %4, align 8, !tbaa !11
  %44 = getelementptr inbounds nuw %struct.PureInfo, ptr %43, i32 0, i32 11
  store i32 0, ptr %44, align 8, !tbaa !36
  %45 = load ptr, ptr %4, align 8, !tbaa !11
  %46 = getelementptr inbounds nuw %struct.PureInfo, ptr %45, i32 0, i32 4
  store i64 0, ptr %46, align 8, !tbaa !37
  %47 = load ptr, ptr %4, align 8, !tbaa !11
  %48 = getelementptr inbounds nuw %struct.PureInfo, ptr %47, i32 0, i32 5
  store i64 0, ptr %48, align 8, !tbaa !38
  %49 = load ptr, ptr %4, align 8, !tbaa !11
  %50 = getelementptr inbounds nuw %struct.PureInfo, ptr %49, i32 0, i32 6
  store i64 0, ptr %50, align 8, !tbaa !39
  %51 = load ptr, ptr %4, align 8, !tbaa !11
  %52 = getelementptr inbounds nuw %struct.PureInfo, ptr %51, i32 0, i32 7
  store i64 0, ptr %52, align 8, !tbaa !40
  %53 = load ptr, ptr @Curl_cfree, align 8, !tbaa !41
  %54 = load ptr, ptr %4, align 8, !tbaa !11
  %55 = getelementptr inbounds nuw %struct.PureInfo, ptr %54, i32 0, i32 8
  %56 = load ptr, ptr %55, align 8, !tbaa !42
  call void %53(ptr noundef %56)
  %57 = load ptr, ptr %4, align 8, !tbaa !11
  %58 = getelementptr inbounds nuw %struct.PureInfo, ptr %57, i32 0, i32 8
  store ptr null, ptr %58, align 8, !tbaa !42
  %59 = load ptr, ptr @Curl_cfree, align 8, !tbaa !41
  %60 = load ptr, ptr %4, align 8, !tbaa !11
  %61 = getelementptr inbounds nuw %struct.PureInfo, ptr %60, i32 0, i32 9
  %62 = load ptr, ptr %61, align 8, !tbaa !43
  call void %59(ptr noundef %62)
  %63 = load ptr, ptr %4, align 8, !tbaa !11
  %64 = getelementptr inbounds nuw %struct.PureInfo, ptr %63, i32 0, i32 9
  store ptr null, ptr %64, align 8, !tbaa !43
  %65 = load ptr, ptr %4, align 8, !tbaa !11
  %66 = getelementptr inbounds nuw %struct.PureInfo, ptr %65, i32 0, i32 12
  call void @llvm.memset.p0.i64(ptr align 4 %66, i8 0, i64 100, i1 false)
  %67 = load ptr, ptr %4, align 8, !tbaa !11
  %68 = getelementptr inbounds nuw %struct.PureInfo, ptr %67, i32 0, i32 12
  %69 = getelementptr inbounds nuw %struct.ip_quadruple, ptr %68, i32 0, i32 2
  store i32 -1, ptr %69, align 4, !tbaa !44
  %70 = load ptr, ptr %4, align 8, !tbaa !11
  %71 = getelementptr inbounds nuw %struct.PureInfo, ptr %70, i32 0, i32 12
  %72 = getelementptr inbounds nuw %struct.ip_quadruple, ptr %71, i32 0, i32 3
  store i32 -1, ptr %72, align 4, !tbaa !45
  %73 = load ptr, ptr %4, align 8, !tbaa !11
  %74 = getelementptr inbounds nuw %struct.PureInfo, ptr %73, i32 0, i32 10
  store i64 0, ptr %74, align 8, !tbaa !46
  %75 = load ptr, ptr %4, align 8, !tbaa !11
  %76 = getelementptr inbounds nuw %struct.PureInfo, ptr %75, i32 0, i32 14
  store ptr null, ptr %76, align 8, !tbaa !47
  %77 = load ptr, ptr %4, align 8, !tbaa !11
  %78 = getelementptr inbounds nuw %struct.PureInfo, ptr %77, i32 0, i32 15
  store i32 0, ptr %78, align 8, !tbaa !48
  %79 = load ptr, ptr %2, align 8, !tbaa !4
  call void @Curl_ssl_free_certinfo(ptr noundef %79)
  call void @llvm.lifetime.end.p0(i64 8, ptr %4) #5
  call void @llvm.lifetime.end.p0(i64 8, ptr %3) #5
  ret i32 0
}