; Function Attrs: nounwind uwtable
define dso_local noundef i32 @Curl_initinfo(ptr noundef initializes((2720, 2728), (2736, 2792), (4888, 4900), (4904, 4944), (4960, 5072), (5080, 5092)) %0) local_unnamed_addr #0 {
  %2 = getelementptr inbounds nuw i8, ptr %0, i64 4888
  %3 = getelementptr inbounds nuw i8, ptr %0, i64 2736
  %4 = getelementptr inbounds nuw i8, ptr %0, i64 2720
  store i64 0, ptr %4, align 8, !tbaa !4
  %5 = getelementptr inbounds nuw i8, ptr %0, i64 3004
  tail call void @llvm.memset.p0.i64(ptr noundef nonnull align 8 dereferenceable(56) %3, i8 0, i64 56, i1 false)
  %6 = load i8, ptr %5, align 4
  %7 = and i8 %6, -3
  store i8 %7, ptr %5, align 4
  store i32 0, ptr %2, align 8, !tbaa !13
  %8 = getelementptr inbounds nuw i8, ptr %0, i64 4892
  store i32 0, ptr %8, align 4, !tbaa !20
  %9 = getelementptr inbounds nuw i8, ptr %0, i64 4896
  store i32 0, ptr %9, align 8, !tbaa !21
  %10 = getelementptr inbounds nuw i8, ptr %0, i64 4904
  store i64 -1, ptr %10, align 8, !tbaa !22
  %11 = getelementptr inbounds nuw i8, ptr %0, i64 5116
  %12 = load i8, ptr %11, align 4
  %13 = and i8 %12, -2
  store i8 %13, ptr %11, align 4
  %14 = getelementptr inbounds nuw i8, ptr %0, i64 4968
  store i32 0, ptr %14, align 8, !tbaa !23
  %15 = getelementptr inbounds nuw i8, ptr %0, i64 4912
  tail call void @llvm.memset.p0.i64(ptr noundef nonnull align 8 dereferenceable(32) %15, i8 0, i64 32, i1 false)
  %16 = load ptr, ptr @Curl_cfree, align 8, !tbaa !24
  %17 = getelementptr inbounds nuw i8, ptr %0, i64 4944
  %18 = load ptr, ptr %17, align 8, !tbaa !25
  tail call void %16(ptr noundef %18) #5
  store ptr null, ptr %17, align 8, !tbaa !25
  %19 = load ptr, ptr @Curl_cfree, align 8, !tbaa !24
  %20 = getelementptr inbounds nuw i8, ptr %0, i64 4952
  %21 = load ptr, ptr %20, align 8, !tbaa !26
  tail call void %19(ptr noundef %21) #5
  store ptr null, ptr %20, align 8, !tbaa !26
  %22 = getelementptr inbounds nuw i8, ptr %0, i64 4972
  tail call void @llvm.memset.p0.i64(ptr noundef nonnull align 4 dereferenceable(100) %22, i8 0, i64 92, i1 false)
  %23 = getelementptr inbounds nuw i8, ptr %0, i64 5064
  store i32 -1, ptr %23, align 4, !tbaa !27
  %24 = getelementptr inbounds nuw i8, ptr %0, i64 5068
  store i32 -1, ptr %24, align 4, !tbaa !28
  %25 = getelementptr inbounds nuw i8, ptr %0, i64 4960
  store i64 0, ptr %25, align 8, !tbaa !29
  %26 = getelementptr inbounds nuw i8, ptr %0, i64 5080
  store ptr null, ptr %26, align 8, !tbaa !30
  %27 = getelementptr inbounds nuw i8, ptr %0, i64 5088
  store i32 0, ptr %27, align 8, !tbaa !31
  tail call void @Curl_ssl_free_certinfo(ptr noundef %0) #5
  ret i32 0
}